target datalayout = "e-m:e-p270:32:32-p271:32:32-p272:64:64-i64:64-i128:128-f80:128-n8:16:32:64-S128"
target triple = "x86_64-pc-linux-gnu"

%struct.pairingheap_node = type { ptr, ptr, ptr }
%struct.SnapshotData = type { i32, i32, i32, ptr, i32, ptr, i32, i8, i8, i8, i32, i32, ptr, i32, i32, %struct.pairingheap_node, i64 }

; Function Attrs: nounwind uwtable
define dso_local i64 @EstimateSnapshotSpace(ptr noundef %0) #0 {
  %2 = alloca ptr, align 8
  %3 = alloca i64, align 8
  store ptr %0, ptr %2, align 8
  call void @llvm.lifetime.start.p0(i64 8, ptr %3) #14
  %4 = load ptr, ptr %2, align 8
  %5 = getelementptr inbounds nuw %struct.SnapshotData, ptr %4, i32 0, i32 4
  %6 = load i32, ptr %5, align 8
  %7 = zext i32 %6 to i64
  %8 = call i64 @mul_size(i64 noundef %7, i64 noundef 4)
  %9 = call i64 @add_size(i64 noundef 24, i64 noundef %8)
  store i64 %9, ptr %3, align 8
  %10 = load ptr, ptr %2, align 8
  %11 = getelementptr inbounds nuw %struct.SnapshotData, ptr %10, i32 0, i32 6
  %12 = load i32, ptr %11, align 8
  %13 = icmp sgt i32 %12, 0
  br i1 %13, label %14, label %32

14:                                               ; preds = %1
  %15 = load ptr, ptr %2, align 8
  %16 = getelementptr inbounds nuw %struct.SnapshotData, ptr %15, i32 0, i32 7
  %17 = load i8, ptr %16, align 4, !range !4, !noundef !5
  %18 = trunc i8 %17 to i1
  br i1 %18, label %19, label %24

19:                                               ; preds = %14
  %20 = load ptr, ptr %2, align 8
  %21 = getelementptr inbounds nuw %struct.SnapshotData, ptr %20, i32 0, i32 8
  %22 = load i8, ptr %21, align 1, !range !4, !noundef !5
  %23 = trunc i8 %22 to i1
  br i1 %23, label %24, label %32

24:                                               ; preds = %19, %14
  %25 = load i64, ptr %3, align 8
  %26 = load ptr, ptr %2, align 8
  %27 = getelementptr inbounds nuw %struct.SnapshotData, ptr %26, i32 0, i32 6
  %28 = load i32, ptr %27, align 8
  %29 = sext i32 %28 to i64
  %30 = call i64 @mul_size(i64 noundef %29, i64 noundef 4)
  %31 = call i64 @add_size(i64 noundef %25, i64 noundef %30)
  store i64 %31, ptr %3, align 8
  br label %32

32:                                               ; preds = %24, %19, %1
  %33 = load i64, ptr %3, align 8
  call void @llvm.lifetime.end.p0(i64 8, ptr %3) #14
  ret i64 %33
}