; Function Attrs: nounwind uwtable
define dso_local i64 @EstimateSnapshotSpace(ptr noundef readonly captures(none) %0) local_unnamed_addr #0 {
  %2 = getelementptr inbounds nuw i8, ptr %0, i64 24
  %3 = load i32, ptr %2, align 8
  %4 = zext i32 %3 to i64
  %5 = tail call i64 @mul_size(i64 noundef %4, i64 noundef 4) #18
  %6 = tail call i64 @add_size(i64 noundef 24, i64 noundef %5) #18
  %7 = getelementptr inbounds nuw i8, ptr %0, i64 40
  %8 = load i32, ptr %7, align 8
  %9 = icmp sgt i32 %8, 0
  br i1 %9, label %10, label %22

10:                                               ; preds = %1
  %11 = getelementptr inbounds nuw i8, ptr %0, i64 44
  %12 = load i8, ptr %11, align 4, !range !4, !noundef !5
  %13 = trunc nuw i8 %12 to i1
  br i1 %13, label %14, label %18

14:                                               ; preds = %10
  %15 = getelementptr inbounds nuw i8, ptr %0, i64 45
  %16 = load i8, ptr %15, align 1, !range !4, !noundef !5
  %17 = trunc nuw i8 %16 to i1
  br i1 %17, label %18, label %22

18:                                               ; preds = %14, %10
  %19 = zext nneg i32 %8 to i64
  %20 = tail call i64 @mul_size(i64 noundef %19, i64 noundef 4) #18
  %21 = tail call i64 @add_size(i64 noundef %6, i64 noundef %20) #18
  br label %22

22:                                               ; preds = %18, %14, %1
  %.0 = phi i64 [ %21, %18 ], [ %6, %14 ], [ %6, %1 ]
  ret i64 %.0
}